target datalayout = "e-m:e-p270:32:32-p271:32:32-p272:64:64-i64:64-i128:128-f80:128-n8:16:32:64-S128"
target triple = "x86_64-unknown-linux-gnu"

%struct.redisServer = type { i32, i64, ptr, ptr, ptr, i32, i32, i32, i32, i32, ptr, ptr, ptr, ptr, ptr, ptr, i32, i32, i64, i32, i32, i32, i32, ptr, i32, i32, [41 x i8], i32, i64, i32, i32, i32, ptr, ptr, i32, i32, i64, ptr, ptr, ptr, ptr, [2 x i32], i32, i32, i32, i32, i32, [16 x ptr], i32, ptr, ptr, i32, [8 x %struct.connListener], i32, %struct.connListener, ptr, ptr, ptr, ptr, ptr, ptr, ptr, ptr, ptr, ptr, i32, ptr, i32, ptr, [3 x %struct.pause_event], [256 x i8], ptr, i64, i32, i32, i32, i32, i64, i32, i32, i32, i32, i32, i64, i64, i64, i64, i64, i64, i64, i64, i64, double, i64, i64, i64, i64, i64, i64, i64, i64, i64, i64, i64, i64, i64, i64, i64, i64, i64, i64, i64, i64, double, i64, i64, i64, i64, i64, ptr, i64, i64, i64, %struct.malloc_stats, i64, i64, i64, i64, i64, i64, i64, i64, i64, i64, i64, i64, double, [4 x i64], i64, i64, i64, i64, i64, i64, i64, i64, i64, i64, [7 x %struct.anon], i64, i64, i64, i64, i64, i64, [4 x %struct.durationStats], i32, i32, i32, i32, i32, i32, i32, i32, i32, i32, i64, i32, i32, i32, i32, i64, i64, i32, i32, i32, i32, i32, ptr, [3 x %struct.clientBufferLimitsConfig], i32, i32, ptr, i32, i32, i32, i32, ptr, ptr, i32, i32, i64, i64, i64, i64, i64, i32, i32, ptr, i32, i32, i64, i64, i64, i64, i64, i32, i32, i64, i32, i32, i32, i32, i32, i32, i32, i32, ptr, i32, i64, i64, i64, i64, ptr, i32, ptr, i32, i32, i32, i64, i64, i64, i64, i32, i32, i32, i32, i32, i32, ptr, i32, i32, ptr, i32, i32, i32, [2 x i32], i32, %struct.redisOpArray, i32, ptr, i32, ptr, i32, i32, i32, i32, i32, i32, i32, [41 x i8], [41 x i8], i64, i64, i64, i64, i32, i32, ptr, i64, i64, i64, i32, i32, i32, i32, i32, i32, i32, i64, ptr, ptr, ptr, ptr, i32, i32, ptr, ptr, i32, i32, i64, i64, i64, ptr, i32, ptr, i64, i32, i32, i32, i64, i32, i32, i32, i32, ptr, i32, i32, [41 x i8], i64, i32, ptr, i32, i32, i64, i64, i32, i32, i32, i32, i32, i64, [3 x i32], i32, i32, i32, [9 x i32], ptr, ptr, i32, i64, ptr, ptr, i32, i32, i32, i32, i64, i64, i64, i64, i64, i64, i64, i64, i64, i64, i32, i32, i64, i64, i32, i64, i64, i64, i64, i64, ptr, ptr, i32, ptr, i32, i32, i32, i64, i64, ptr, ptr, i32, i32, i32, i32, i32, ptr, ptr, ptr, i32, i32, i32, i32, i32, i32, i32, i64, i32, i64, i32, i32, i32, i32, i32, i32, i32, i64, ptr, ptr, i64, ptr, i32, %struct.aclInfo, i32, i64, i32, i32, i32, %struct.redisTLSContextConfig, ptr, ptr, ptr, ptr, ptr, i64, i32, ptr, i32, i32, i32, i64, i32, ptr }
%struct.connListener = type { [16 x i32], i32, ptr, i32, i32, ptr, ptr }
%struct.pause_event = type { i32, i64 }
%struct.malloc_stats = type { i64, i64, i64, i64, i64 }
%struct.anon = type { i64, i64, [16 x i64], i32 }
%struct.durationStats = type { i64, i64, i64 }
%struct.clientBufferLimitsConfig = type { i64, i64, i64 }
%struct.redisOpArray = type { ptr, i32, i32 }
%struct.aclInfo = type { i64, i64, i64, i64 }
%struct.redisTLSContextConfig = type { ptr, ptr, ptr, ptr, ptr, ptr, ptr, ptr, ptr, ptr, ptr, ptr, i32, i32, i32, i32 }
%struct.redisObject = type { i32, i32, ptr }
%struct.dict = type { ptr, [2 x ptr], [2 x i64], i64, i16, [2 x i8], [0 x ptr] }
%struct.listNode = type { ptr, ptr, ptr }
%struct.client = type { i64, i64, ptr, i32, ptr, ptr, ptr, ptr, ptr, i64, i64, i32, ptr, i32, i32, ptr, i64, ptr, ptr, ptr, ptr, i32, i32, i64, ptr, i64, ptr, i64, i64, i64, i32, ptr, i64, i64, i32, i32, i32, i32, i64, i64, ptr, i64, i64, i64, i64, i64, i64, i64, i64, [41 x i8], i32, ptr, i32, i32, %struct.multiState, %struct.blockingState, i64, ptr, ptr, ptr, ptr, ptr, ptr, ptr, ptr, ptr, ptr, ptr, ptr, ptr, ptr, i64, ptr, i64, i32, ptr, ptr, ptr, i64, %struct.listNode, i64, i64, i32, i64, ptr }
%struct.multiState = type { ptr, i32, i32, i32, i64, i32 }
%struct.blockingState = type { i32, i64, i32, ptr, i32, i32, i64, ptr, ptr }

@server = dso_local global %struct.redisServer zeroinitializer, align 8

; Function Attrs: nounwind uwtable
define dso_local ptr @lookupCommandBySds(ptr noundef %s) #0 {
entry:
  %s.addr = alloca ptr, align 8
  store ptr %s, ptr %s.addr, align 8
  %0 = load ptr, ptr getelementptr inbounds (%struct.redisServer, ptr @server, i32 0, i32 12), align 8
  %1 = load ptr, ptr %s.addr, align 8
  %call = call ptr @lookupCommandBySdsLogic(ptr noundef %0, ptr noundef %1)
  ret ptr %call
}

; Function Attrs: nounwind uwtable
define dso_local void @commandInfoCommand(ptr noundef %c) #0 {
entry:
  %c.addr = alloca ptr, align 8
  %i = alloca i32, align 4
  %di = alloca ptr, align 8
  %de = alloca ptr, align 8
  store ptr %c, ptr %c.addr, align 8
  %0 = load ptr, ptr %c.addr, align 8
  %argc = getelementptr inbounds %struct.client, ptr %0, i32 0, i32 11
  %1 = load i32, ptr %argc, align 8
  %cmp = icmp eq i32 %1, 2
  br i1 %cmp, label %if.then, label %if.else

if.then:                                          ; preds = %entry
  %2 = load ptr, ptr %c.addr, align 8
  %3 = load ptr, ptr getelementptr inbounds (%struct.redisServer, ptr @server, i32 0, i32 12), align 8
  %ht_used = getelementptr inbounds %struct.dict, ptr %3, i32 0, i32 2
  %arrayidx = getelementptr inbounds [2 x i64], ptr %ht_used, i64 0, i64 0
  %4 = load i64, ptr %arrayidx, align 8
  %5 = load ptr, ptr getelementptr inbounds (%struct.redisServer, ptr @server, i32 0, i32 12), align 8
  %ht_used1 = getelementptr inbounds %struct.dict, ptr %5, i32 0, i32 2
  %arrayidx2 = getelementptr inbounds [2 x i64], ptr %ht_used1, i64 0, i64 1
  %6 = load i64, ptr %arrayidx2, align 8
  %add = add i64 %4, %6
  call void @addReplyArrayLen(ptr noundef %2, i64 noundef %add)
  %7 = load ptr, ptr getelementptr inbounds (%struct.redisServer, ptr @server, i32 0, i32 12), align 8
  %call = call ptr @dictGetIterator(ptr noundef %7)
  store ptr %call, ptr %di, align 8
  br label %while.cond

while.cond:                                       ; preds = %while.body, %if.then
  %8 = load ptr, ptr %di, align 8
  %call3 = call ptr @dictNext(ptr noundef %8)
  store ptr %call3, ptr %de, align 8
  %cmp4 = icmp ne ptr %call3, null
  br i1 %cmp4, label %while.body, label %while.end

while.body:                                       ; preds = %while.cond
  %9 = load ptr, ptr %c.addr, align 8
  %10 = load ptr, ptr %de, align 8
  %call5 = call ptr @dictGetVal(ptr noundef %10)
  call void @addReplyCommandInfo(ptr noundef %9, ptr noundef %call5)
  br label %while.cond, !llvm.loop !62

while.end:                                        ; preds = %while.cond
  %11 = load ptr, ptr %di, align 8
  call void @dictReleaseIterator(ptr noundef %11)
  br label %if.end

if.else:                                          ; preds = %entry
  %12 = load ptr, ptr %c.addr, align 8
  %13 = load ptr, ptr %c.addr, align 8
  %argc6 = getelementptr inbounds %struct.client, ptr %13, i32 0, i32 11
  %14 = load i32, ptr %argc6, align 8
  %sub = sub nsw i32 %14, 2
  %conv = sext i32 %sub to i64
  call void @addReplyArrayLen(ptr noundef %12, i64 noundef %conv)
  store i32 2, ptr %i, align 4
  br label %for.cond

for.cond:                                         ; preds = %for.inc, %if.else
  %15 = load i32, ptr %i, align 4
  %16 = load ptr, ptr %c.addr, align 8
  %argc7 = getelementptr inbounds %struct.client, ptr %16, i32 0, i32 11
  %17 = load i32, ptr %argc7, align 8
  %cmp8 = icmp slt i32 %15, %17
  br i1 %cmp8, label %for.body, label %for.end

for.body:                                         ; preds = %for.cond
  %18 = load ptr, ptr %c.addr, align 8
  %19 = load ptr, ptr %c.addr, align 8
  %argv = getelementptr inbounds %struct.client, ptr %19, i32 0, i32 12
  %20 = load ptr, ptr %argv, align 8
  %21 = load i32, ptr %i, align 4
  %idxprom = sext i32 %21 to i64
  %arrayidx10 = getelementptr inbounds ptr, ptr %20, i64 %idxprom
  %22 = load ptr, ptr %arrayidx10, align 8
  %ptr = getelementptr inbounds %struct.redisObject, ptr %22, i32 0, i32 2
  %23 = load ptr, ptr %ptr, align 8
  %call11 = call ptr @lookupCommandBySds(ptr noundef %23)
  call void @addReplyCommandInfo(ptr noundef %18, ptr noundef %call11)
  br label %for.inc

for.inc:                                          ; preds = %for.body
  %24 = load i32, ptr %i, align 4
  %inc = add nsw i32 %24, 1
  store i32 %inc, ptr %i, align 4
  br label %for.cond, !llvm.loop !63

for.end:                                          ; preds = %for.cond
  br label %if.end

if.end:                                           ; preds = %for.end, %while.end
  ret void
}