; Function Attrs: nounwind uwtable
define dso_local void @commandInfoCommand(ptr noundef %c) local_unnamed_addr #0 {
entry:
  %argc = getelementptr inbounds i8, ptr %c, i64 88
  %0 = load i32, ptr %argc, align 8
  %cmp = icmp eq i32 %0, 2
  br i1 %cmp, label %if.then, label %if.else

if.then:                                          ; preds = %entry
  %1 = load ptr, ptr getelementptr inbounds (%struct.redisServer, ptr @server, i64 0, i32 12), align 8
  %ht_used = getelementptr inbounds i8, ptr %1, i64 24
  %2 = load i64, ptr %ht_used, align 8
  %arrayidx2 = getelementptr inbounds i8, ptr %1, i64 32
  %3 = load i64, ptr %arrayidx2, align 8
  %add = add i64 %3, %2
  tail call void @addReplyArrayLen(ptr noundef nonnull %c, i64 noundef %add) #38
  %4 = load ptr, ptr getelementptr inbounds (%struct.redisServer, ptr @server, i64 0, i32 12), align 8
  %call = tail call ptr @dictGetIterator(ptr noundef %4) #38
  %call313 = tail call ptr @dictNext(ptr noundef %call) #38
  %cmp4.not14 = icmp eq ptr %call313, null
  br i1 %cmp4.not14, label %while.end, label %while.body

while.body:                                       ; preds = %if.then, %while.body
  %call315 = phi ptr [ %call3, %while.body ], [ %call313, %if.then ]
  %call5 = tail call ptr @dictGetVal(ptr noundef nonnull %call315) #38
  tail call void @addReplyCommandInfo(ptr noundef %c, ptr noundef %call5)
  %call3 = tail call ptr @dictNext(ptr noundef %call) #38
  %cmp4.not = icmp eq ptr %call3, null
  br i1 %cmp4.not, label %while.end, label %while.body, !llvm.loop !63

while.end:                                        ; preds = %while.body, %if.then
  tail call void @dictReleaseIterator(ptr noundef %call) #38
  br label %if.end

if.else:                                          ; preds = %entry
  %sub = add nsw i32 %0, -2
  %conv = sext i32 %sub to i64
  tail call void @addReplyArrayLen(ptr noundef nonnull %c, i64 noundef %conv) #38
  %5 = load i32, ptr %argc, align 8
  %cmp811 = icmp sgt i32 %5, 2
  br i1 %cmp811, label %for.body.lr.ph, label %if.end

for.body.lr.ph:                                   ; preds = %if.else
  %argv = getelementptr inbounds i8, ptr %c, i64 96
  br label %for.body

for.body:                                         ; preds = %for.body.lr.ph, %for.body
  %indvars.iv = phi i64 [ 2, %for.body.lr.ph ], [ %indvars.iv.next, %for.body ]
  %6 = load ptr, ptr %argv, align 8
  %arrayidx10 = getelementptr inbounds ptr, ptr %6, i64 %indvars.iv
  %7 = load ptr, ptr %arrayidx10, align 8
  %ptr = getelementptr inbounds i8, ptr %7, i64 8
  %8 = load ptr, ptr %ptr, align 8
  %9 = load ptr, ptr getelementptr inbounds (%struct.redisServer, ptr @server, i64 0, i32 12), align 8
  %call.i = tail call ptr @lookupCommandBySdsLogic(ptr noundef %9, ptr noundef %8)
  tail call void @addReplyCommandInfo(ptr noundef nonnull %c, ptr noundef %call.i)
  %indvars.iv.next = add nuw nsw i64 %indvars.iv, 1
  %10 = load i32, ptr %argc, align 8
  %11 = sext i32 %10 to i64
  %cmp8 = icmp slt i64 %indvars.iv.next, %11
  br i1 %cmp8, label %for.body, label %if.end, !llvm.loop !64

if.end:                                           ; preds = %for.body, %if.else, %while.end
  ret void
}